#include <math.h>
#include <stdio.h>
#include <stdlib.h>
#include <string.h>
#include <iostream>
using namespace std;

//??????sum??????????temp??????
int sum ,temp ;
void fact(int) ;//??fact????int?????

int main ()
{
	int n , i , k ;
	cin >> n ;
	for ( i = 0 ; i < n ; i++ )
	{
		cin >> k ;
		sum = 0 ;
		temp = 2 ;//????????????????????????
		fact(k) ;
		cout << sum << endl ;
	}
	return 0 ;
}

void fact(int k)
{
	if ( k == 1 )//???????
	{
		sum++ ;
		return ;
	}
	int i ;//i?????k???????temp??????????????????????????
	for ( i = temp ; i <= k ; i++ )
	{
		if ( k % i == 0 )
		{
			temp = i ;//??temp?
			fact(k/i) ;//???????
		}
	}
}